target datalayout = "e-m:e-p270:32:32-p271:32:32-p272:64:64-i64:64-i128:128-f80:128-n8:16:32:64-S128"
target triple = "x86_64-pc-linux-gnu"

%class.LogTagSet = type { ptr, i64, [5 x i32], [4 x i8], %class.LogOutputList, %class.LogDecorators, ptr }
%class.LogOutputList = type <{ [6 x ptr], i32, [4 x i8] }>
%class.LogDecorators = type { i32 }
%class.Annotations = type { ptr, ptr, ptr, ptr }
%"class.MetaspaceClosure::ArrayRef" = type { %"class.MetaspaceClosure::Ref", ptr }
%"class.MetaspaceClosure::Ref" = type { ptr, i32, ptr, ptr }
%"class.MetaspaceClosure::ArrayRef.11" = type { %"class.MetaspaceClosure::Ref", ptr }

@.str = private unnamed_addr constant [22 x i8] c"Iter(Annotations): %p\00", align 1
@_ZN16LogTagSetMappingILN6LogTag4typeE14ELS1_0ELS1_0ELS1_0ELS1_0ELS1_0EE7_tagsetE = linkonce_odr hidden global %class.LogTagSet zeroinitializer, comdat, align 8

; Function Attrs: mustprogress nounwind uwtable
define linkonce_odr hidden void @_ZN16MetaspaceClosure3RefC2ENS_11WritabilityE(ptr noundef nonnull align 8 dereferenceable(32) %0, i32 noundef %1) unnamed_addr #1 comdat align 2 {
  %3 = alloca ptr, align 8
  %4 = alloca i32, align 4
  store ptr %0, ptr %3, align 8
  store i32 %1, ptr %4, align 4
  %5 = load ptr, ptr %3, align 8
  store ptr getelementptr inbounds inrange(-16, 72) ({ [11 x ptr] }, ptr @_ZTVN16MetaspaceClosure3RefE, i32 0, i32 0, i32 2), ptr %5, align 8
  %6 = getelementptr inbounds %"class.MetaspaceClosure::Ref", ptr %5, i32 0, i32 1
  %7 = load i32, ptr %4, align 4
  store i32 %7, ptr %6, align 8
  %8 = getelementptr inbounds %"class.MetaspaceClosure::Ref", ptr %5, i32 0, i32 2
  store ptr null, ptr %8, align 8
  %9 = getelementptr inbounds %"class.MetaspaceClosure::Ref", ptr %5, i32 0, i32 3
  store ptr null, ptr %9, align 8
  ret void
}

; Function Attrs: mustprogress nounwind uwtable
define linkonce_odr hidden void @_ZN16MetaspaceClosure8ArrayRefIP5ArrayIhEEC2EPPS1_IS3_ENS_11WritabilityE(ptr noundef nonnull align 8 dereferenceable(40) %0, ptr noundef %1, i32 noundef %2) unnamed_addr #1 comdat align 2 {
  %4 = alloca ptr, align 8
  %5 = alloca ptr, align 8
  %6 = alloca i32, align 4
  store ptr %0, ptr %4, align 8
  store ptr %1, ptr %5, align 8
  store i32 %2, ptr %6, align 4
  %7 = load ptr, ptr %4, align 8
  %8 = load i32, ptr %6, align 4
  call void @_ZN16MetaspaceClosure3RefC2ENS_11WritabilityE(ptr noundef nonnull align 8 dereferenceable(32) %7, i32 noundef %8)
  store ptr getelementptr inbounds inrange(-16, 72) ({ [11 x ptr] }, ptr @_ZTVN16MetaspaceClosure8ArrayRefIP5ArrayIhEEE, i32 0, i32 0, i32 2), ptr %7, align 8
  %9 = getelementptr inbounds %"class.MetaspaceClosure::ArrayRef.11", ptr %7, i32 0, i32 1
  %10 = load ptr, ptr %5, align 8
  store ptr %10, ptr %9, align 8
  ret void
}

; Function Attrs: mustprogress nounwind uwtable
define linkonce_odr hidden void @_ZN16MetaspaceClosure8ArrayRefIhEC2EPP5ArrayIhENS_11WritabilityE(ptr noundef nonnull align 8 dereferenceable(40) %0, ptr noundef %1, i32 noundef %2) unnamed_addr #1 comdat align 2 {
  %4 = alloca ptr, align 8
  %5 = alloca ptr, align 8
  %6 = alloca i32, align 4
  store ptr %0, ptr %4, align 8
  store ptr %1, ptr %5, align 8
  store i32 %2, ptr %6, align 4
  %7 = load ptr, ptr %4, align 8
  %8 = load i32, ptr %6, align 4
  call void @_ZN16MetaspaceClosure3RefC2ENS_11WritabilityE(ptr noundef nonnull align 8 dereferenceable(32) %7, i32 noundef %8)
  store ptr getelementptr inbounds inrange(-16, 72) ({ [11 x ptr] }, ptr @_ZTVN16MetaspaceClosure8ArrayRefIhEE, i32 0, i32 0, i32 2), ptr %7, align 8
  %9 = getelementptr inbounds %"class.MetaspaceClosure::ArrayRef", ptr %7, i32 0, i32 1
  %10 = load ptr, ptr %5, align 8
  store ptr %10, ptr %9, align 8
  ret void
}

; Function Attrs: mustprogress nounwind uwtable
define linkonce_odr hidden void @_ZN16MetaspaceClosure18MSOPointerArrayRefI5ArrayIhEEC2EPPS1_IPS2_ENS_11WritabilityE(ptr noundef nonnull align 8 dereferenceable(40) %0, ptr noundef %1, i32 noundef %2) unnamed_addr #1 comdat align 2 {
  %4 = alloca ptr, align 8
  %5 = alloca ptr, align 8
  %6 = alloca i32, align 4
  store ptr %0, ptr %4, align 8
  store ptr %1, ptr %5, align 8
  store i32 %2, ptr %6, align 4
  %7 = load ptr, ptr %4, align 8
  %8 = load ptr, ptr %5, align 8
  %9 = load i32, ptr %6, align 4
  call void @_ZN16MetaspaceClosure8ArrayRefIP5ArrayIhEEC2EPPS1_IS3_ENS_11WritabilityE(ptr noundef nonnull align 8 dereferenceable(40) %7, ptr noundef %8, i32 noundef %9)
  store ptr getelementptr inbounds inrange(-16, 72) ({ [11 x ptr] }, ptr @_ZTVN16MetaspaceClosure18MSOPointerArrayRefI5ArrayIhEEE, i32 0, i32 0, i32 2), ptr %7, align 8
  ret void
}

; Function Attrs: mustprogress nounwind uwtable
define linkonce_odr hidden void @_ZN16MetaspaceClosure13OtherArrayRefIhEC2EPP5ArrayIhENS_11WritabilityE(ptr noundef nonnull align 8 dereferenceable(40) %0, ptr noundef %1, i32 noundef %2) unnamed_addr #1 comdat align 2 {
  %4 = alloca ptr, align 8
  %5 = alloca ptr, align 8
  %6 = alloca i32, align 4
  store ptr %0, ptr %4, align 8
  store ptr %1, ptr %5, align 8
  store i32 %2, ptr %6, align 4
  %7 = load ptr, ptr %4, align 8
  %8 = load ptr, ptr %5, align 8
  %9 = load i32, ptr %6, align 4
  call void @_ZN16MetaspaceClosure8ArrayRefIhEC2EPP5ArrayIhENS_11WritabilityE(ptr noundef nonnull align 8 dereferenceable(40) %7, ptr noundef %8, i32 noundef %9)
  store ptr getelementptr inbounds inrange(-16, 72) ({ [11 x ptr] }, ptr @_ZTVN16MetaspaceClosure13OtherArrayRefIhEE, i32 0, i32 0, i32 2), ptr %7, align 8
  ret void
}

; Function Attrs: mustprogress nounwind uwtable
define linkonce_odr hidden noundef zeroext i1 @_ZNK13LogOutputList8is_levelEN8LogLevel4typeE(ptr noundef nonnull align 8 dereferenceable(52) %0, i32 noundef %1) #1 comdat align 2 {
  %3 = alloca ptr, align 8
  %4 = alloca i32, align 4
  store ptr %0, ptr %3, align 8
  store i32 %1, ptr %4, align 4
  %5 = load ptr, ptr %3, align 8
  %6 = getelementptr inbounds %class.LogOutputList, ptr %5, i32 0, i32 0
  %7 = load i32, ptr %4, align 4
  %8 = zext i32 %7 to i64
  %9 = getelementptr inbounds [6 x ptr], ptr %6, i64 0, i64 %8
  %10 = load volatile ptr, ptr %9, align 8
  %11 = icmp ne ptr %10, null
  ret i1 %11
}

; Function Attrs: mustprogress nounwind uwtable
define linkonce_odr hidden void @_ZN16MetaspaceClosure13push_with_refINS_18MSOPointerArrayRefI5ArrayIhEEES2_IPS3_EEEvPPT0_NS_11WritabilityE(ptr noundef nonnull align 8 dereferenceable(32) %0, ptr noundef %1, i32 noundef %2) #1 comdat align 2 {
  %4 = alloca i64, align 8
  %5 = alloca i8, align 1
  %6 = alloca i64, align 8
  %7 = alloca ptr, align 8
  %8 = alloca ptr, align 8
  %9 = alloca i32, align 4
  store ptr %0, ptr %7, align 8
  store ptr %1, ptr %8, align 8
  store i32 %2, ptr %9, align 4
  %10 = load ptr, ptr %7, align 8
  store i64 40, ptr %6, align 8
  %11 = load i64, ptr %6, align 8
  store i64 %11, ptr %4, align 8
  store i8 24, ptr %5, align 1
  %12 = load i64, ptr %4, align 8
  %13 = load i8, ptr %5, align 1
  %14 = call noundef ptr @_Z12AllocateHeapm8MEMFLAGSN17AllocFailStrategy13AllocFailEnumE(i64 noundef %12, i8 noundef zeroext %13, i32 noundef 0) #6
  %15 = load ptr, ptr %8, align 8
  %16 = load i32, ptr %9, align 4
  call void @_ZN16MetaspaceClosure18MSOPointerArrayRefI5ArrayIhEEC2EPPS1_IPS2_ENS_11WritabilityE(ptr noundef nonnull align 8 dereferenceable(40) %14, ptr noundef %15, i32 noundef %16)
  call void @_ZN16MetaspaceClosure9push_implEPNS_3RefE(ptr noundef nonnull align 8 dereferenceable(32) %10, ptr noundef %14)
  ret void
}

; Function Attrs: mustprogress nounwind uwtable
define linkonce_odr hidden void @_ZN16MetaspaceClosure13push_with_refINS_13OtherArrayRefIhEE5ArrayIhEEEvPPT0_NS_11WritabilityE(ptr noundef nonnull align 8 dereferenceable(32) %0, ptr noundef %1, i32 noundef %2) #1 comdat align 2 {
  %4 = alloca i64, align 8
  %5 = alloca i8, align 1
  %6 = alloca i64, align 8
  %7 = alloca ptr, align 8
  %8 = alloca ptr, align 8
  %9 = alloca i32, align 4
  store ptr %0, ptr %7, align 8
  store ptr %1, ptr %8, align 8
  store i32 %2, ptr %9, align 4
  %10 = load ptr, ptr %7, align 8
  store i64 40, ptr %6, align 8
  %11 = load i64, ptr %6, align 8
  store i64 %11, ptr %4, align 8
  store i8 24, ptr %5, align 1
  %12 = load i64, ptr %4, align 8
  %13 = load i8, ptr %5, align 1
  %14 = call noundef ptr @_Z12AllocateHeapm8MEMFLAGSN17AllocFailStrategy13AllocFailEnumE(i64 noundef %12, i8 noundef zeroext %13, i32 noundef 0) #6
  %15 = load ptr, ptr %8, align 8
  %16 = load i32, ptr %9, align 4
  call void @_ZN16MetaspaceClosure13OtherArrayRefIhEC2EPP5ArrayIhENS_11WritabilityE(ptr noundef nonnull align 8 dereferenceable(40) %14, ptr noundef %15, i32 noundef %16)
  call void @_ZN16MetaspaceClosure9push_implEPNS_3RefE(ptr noundef nonnull align 8 dereferenceable(32) %10, ptr noundef %14)
  ret void
}

; Function Attrs: mustprogress nounwind uwtable
define linkonce_odr hidden noundef zeroext i1 @_ZNK9LogTagSet8is_levelEN8LogLevel4typeE(ptr noundef nonnull align 8 dereferenceable(112) %0, i32 noundef %1) #1 comdat align 2 {
  %3 = alloca ptr, align 8
  %4 = alloca i32, align 4
  store ptr %0, ptr %3, align 8
  store i32 %1, ptr %4, align 4
  %5 = load ptr, ptr %3, align 8
  %6 = getelementptr inbounds %class.LogTagSet, ptr %5, i32 0, i32 4
  %7 = load i32, ptr %4, align 4
  %8 = call noundef zeroext i1 @_ZNK13LogOutputList8is_levelEN8LogLevel4typeE(ptr noundef nonnull align 8 dereferenceable(52) %6, i32 noundef %7)
  ret i1 %8
}

; Function Attrs: mustprogress nounwind uwtable
define linkonce_odr hidden noundef nonnull align 8 dereferenceable(112) ptr @_ZN16LogTagSetMappingILN6LogTag4typeE14ELS1_0ELS1_0ELS1_0ELS1_0ELS1_0EE6tagsetEv() #1 comdat align 2 {
  ret ptr @_ZN16LogTagSetMappingILN6LogTag4typeE14ELS1_0ELS1_0ELS1_0ELS1_0ELS1_0EE7_tagsetE
}

; Function Attrs: mustprogress nounwind uwtable
define linkonce_odr hidden void @_ZN16MetaspaceClosure4pushI5ArrayIhEEEvPPS1_IPT_ENS_11WritabilityE(ptr noundef nonnull align 8 dereferenceable(32) %0, ptr noundef %1, i32 noundef %2) #1 comdat align 2 {
  %4 = alloca ptr, align 8
  %5 = alloca ptr, align 8
  %6 = alloca i32, align 4
  store ptr %0, ptr %4, align 8
  store ptr %1, ptr %5, align 8
  store i32 %2, ptr %6, align 4
  %7 = load ptr, ptr %4, align 8
  %8 = load ptr, ptr %5, align 8
  %9 = load i32, ptr %6, align 4
  call void @_ZN16MetaspaceClosure13push_with_refINS_18MSOPointerArrayRefI5ArrayIhEEES2_IPS3_EEEvPPT0_NS_11WritabilityE(ptr noundef nonnull align 8 dereferenceable(32) %7, ptr noundef %8, i32 noundef %9)
  ret void
}

; Function Attrs: mustprogress nounwind uwtable
define linkonce_odr hidden void @_ZN16MetaspaceClosure4pushIhTnNSt9enable_ifIXcvbntsr3std10is_base_ofI12MetaspaceObjT_EE5valueEiE4typeELi0EEEvPP5ArrayIS3_ENS_11WritabilityE(ptr noundef nonnull align 8 dereferenceable(32) %0, ptr noundef %1, i32 noundef %2) #1 comdat align 2 {
  %4 = alloca ptr, align 8
  %5 = alloca ptr, align 8
  %6 = alloca i32, align 4
  store ptr %0, ptr %4, align 8
  store ptr %1, ptr %5, align 8
  store i32 %2, ptr %6, align 4
  %7 = load ptr, ptr %4, align 8
  %8 = load ptr, ptr %5, align 8
  %9 = load i32, ptr %6, align 4
  call void @_ZN16MetaspaceClosure13push_with_refINS_13OtherArrayRefIhEE5ArrayIhEEEvPPT0_NS_11WritabilityE(ptr noundef nonnull align 8 dereferenceable(32) %7, ptr noundef %8, i32 noundef %9)
  ret void
}

; Function Attrs: mustprogress nounwind uwtable
define linkonce_odr hidden noundef zeroext i1 @_ZN7LogImplILN6LogTag4typeE14ELS1_0ELS1_0ELS1_0ELS1_0ELS1_0EE8is_levelEN8LogLevel4typeE(i32 noundef %0) #1 comdat align 2 {
  %2 = alloca i32, align 4
  store i32 %0, ptr %2, align 4
  %3 = call noundef nonnull align 8 dereferenceable(112) ptr @_ZN16LogTagSetMappingILN6LogTag4typeE14ELS1_0ELS1_0ELS1_0ELS1_0ELS1_0EE6tagsetEv()
  %4 = load i32, ptr %2, align 4
  %5 = call noundef zeroext i1 @_ZNK9LogTagSet8is_levelEN8LogLevel4typeE(ptr noundef nonnull align 8 dereferenceable(112) %3, i32 noundef %4)
  ret i1 %5
}

; Function Attrs: mustprogress nounwind uwtable
define hidden void @_ZN11Annotations21metaspace_pointers_doEP16MetaspaceClosure(ptr noundef nonnull align 8 dereferenceable(32) %0, ptr noundef %1) #1 align 2 {
  %3 = alloca ptr, align 8
  %4 = alloca ptr, align 8
  store ptr %0, ptr %3, align 8
  store ptr %1, ptr %4, align 8
  %5 = load ptr, ptr %3, align 8
  %6 = call noundef zeroext i1 @_ZN7LogImplILN6LogTag4typeE14ELS1_0ELS1_0ELS1_0ELS1_0ELS1_0EE8is_levelEN8LogLevel4typeE(i32 noundef 1)
  br i1 %6, label %8, label %7

7:                                                ; preds = %2
  br label %9

8:                                                ; preds = %2
  call void (ptr, ...) @_ZN7LogImplILN6LogTag4typeE14ELS1_0ELS1_0ELS1_0ELS1_0ELS1_0EE5writeILN8LogLevel4typeE1EEEvPKcz(ptr noundef @.str, ptr noundef %5)
  br label %9

9:                                                ; preds = %8, %7
  %10 = load ptr, ptr %4, align 8
  %11 = getelementptr inbounds %class.Annotations, ptr %5, i32 0, i32 0
  call void @_ZN16MetaspaceClosure4pushIhTnNSt9enable_ifIXcvbntsr3std10is_base_ofI12MetaspaceObjT_EE5valueEiE4typeELi0EEEvPP5ArrayIS3_ENS_11WritabilityE(ptr noundef nonnull align 8 dereferenceable(32) %10, ptr noundef %11, i32 noundef 2)
  %12 = load ptr, ptr %4, align 8
  %13 = getelementptr inbounds %class.Annotations, ptr %5, i32 0, i32 1
  call void @_ZN16MetaspaceClosure4pushI5ArrayIhEEEvPPS1_IPT_ENS_11WritabilityE(ptr noundef nonnull align 8 dereferenceable(32) %12, ptr noundef %13, i32 noundef 2)
  %14 = load ptr, ptr %4, align 8
  %15 = getelementptr inbounds %class.Annotations, ptr %5, i32 0, i32 2
  call void @_ZN16MetaspaceClosure4pushIhTnNSt9enable_ifIXcvbntsr3std10is_base_ofI12MetaspaceObjT_EE5valueEiE4typeELi0EEEvPP5ArrayIS3_ENS_11WritabilityE(ptr noundef nonnull align 8 dereferenceable(32) %14, ptr noundef %15, i32 noundef 2)
  %16 = load ptr, ptr %4, align 8
  %17 = getelementptr inbounds %class.Annotations, ptr %5, i32 0, i32 3
  call void @_ZN16MetaspaceClosure4pushI5ArrayIhEEEvPPS1_IPT_ENS_11WritabilityE(ptr noundef nonnull align 8 dereferenceable(32) %16, ptr noundef %17, i32 noundef 2)
  ret void
}