; Function Attrs: mustprogress nounwind uwtable
define hidden void @_ZN11Annotations21metaspace_pointers_doEP16MetaspaceClosure(ptr noundef nonnull align 8 dereferenceable(32) %0, ptr noundef %1) local_unnamed_addr #0 align 2 {
  %3 = load volatile ptr, ptr getelementptr inbounds (i8, ptr @_ZN16LogTagSetMappingILN6LogTag4typeE14ELS1_0ELS1_0ELS1_0ELS1_0ELS1_0EE7_tagsetE, i64 48), align 8
  %.not = icmp eq ptr %3, null
  br i1 %.not, label %5, label %4

4:                                                ; preds = %2
  tail call void (ptr, ...) @_ZN7LogImplILN6LogTag4typeE14ELS1_0ELS1_0ELS1_0ELS1_0ELS1_0EE5writeILN8LogLevel4typeE1EEEvPKcz(ptr noundef nonnull @.str, ptr noundef nonnull %0)
  br label %5

5:                                                ; preds = %2, %4
  %6 = tail call noundef ptr @_Z12AllocateHeapm8MEMFLAGSN17AllocFailStrategy13AllocFailEnumE(i64 noundef 40, i8 noundef zeroext 24, i32 noundef 0) #7
  %7 = getelementptr inbounds i8, ptr %6, i64 8
  store i32 2, ptr %7, align 8
  %8 = getelementptr inbounds i8, ptr %6, i64 16
  tail call void @llvm.memset.p0.i64(ptr noundef nonnull align 8 dereferenceable(16) %8, i8 0, i64 16, i1 false)
  %9 = getelementptr inbounds i8, ptr %6, i64 32
  store ptr %0, ptr %9, align 8
  store ptr getelementptr inbounds inrange(-16, 72) (i8, ptr @_ZTVN16MetaspaceClosure13OtherArrayRefIhEE, i64 16), ptr %6, align 8
  tail call void @_ZN16MetaspaceClosure9push_implEPNS_3RefE(ptr noundef nonnull align 8 dereferenceable(32) %1, ptr noundef nonnull %6) #7
  %10 = getelementptr inbounds i8, ptr %0, i64 8
  %11 = tail call noundef ptr @_Z12AllocateHeapm8MEMFLAGSN17AllocFailStrategy13AllocFailEnumE(i64 noundef 40, i8 noundef zeroext 24, i32 noundef 0) #7
  %12 = getelementptr inbounds i8, ptr %11, i64 8
  store i32 2, ptr %12, align 8
  %13 = getelementptr inbounds i8, ptr %11, i64 16
  tail call void @llvm.memset.p0.i64(ptr noundef nonnull align 8 dereferenceable(16) %13, i8 0, i64 16, i1 false)
  %14 = getelementptr inbounds i8, ptr %11, i64 32
  store ptr %10, ptr %14, align 8
  store ptr getelementptr inbounds inrange(-16, 72) (i8, ptr @_ZTVN16MetaspaceClosure18MSOPointerArrayRefI5ArrayIhEEE, i64 16), ptr %11, align 8
  tail call void @_ZN16MetaspaceClosure9push_implEPNS_3RefE(ptr noundef nonnull align 8 dereferenceable(32) %1, ptr noundef nonnull %11) #7
  %15 = getelementptr inbounds i8, ptr %0, i64 16
  %16 = tail call noundef ptr @_Z12AllocateHeapm8MEMFLAGSN17AllocFailStrategy13AllocFailEnumE(i64 noundef 40, i8 noundef zeroext 24, i32 noundef 0) #7
  %17 = getelementptr inbounds i8, ptr %16, i64 8
  store i32 2, ptr %17, align 8
  %18 = getelementptr inbounds i8, ptr %16, i64 16
  tail call void @llvm.memset.p0.i64(ptr noundef nonnull align 8 dereferenceable(16) %18, i8 0, i64 16, i1 false)
  %19 = getelementptr inbounds i8, ptr %16, i64 32
  store ptr %15, ptr %19, align 8
  store ptr getelementptr inbounds inrange(-16, 72) (i8, ptr @_ZTVN16MetaspaceClosure13OtherArrayRefIhEE, i64 16), ptr %16, align 8
  tail call void @_ZN16MetaspaceClosure9push_implEPNS_3RefE(ptr noundef nonnull align 8 dereferenceable(32) %1, ptr noundef nonnull %16) #7
  %20 = getelementptr inbounds i8, ptr %0, i64 24
  %21 = tail call noundef ptr @_Z12AllocateHeapm8MEMFLAGSN17AllocFailStrategy13AllocFailEnumE(i64 noundef 40, i8 noundef zeroext 24, i32 noundef 0) #7
  %22 = getelementptr inbounds i8, ptr %21, i64 8
  store i32 2, ptr %22, align 8
  %23 = getelementptr inbounds i8, ptr %21, i64 16
  tail call void @llvm.memset.p0.i64(ptr noundef nonnull align 8 dereferenceable(16) %23, i8 0, i64 16, i1 false)
  %24 = getelementptr inbounds i8, ptr %21, i64 32
  store ptr %20, ptr %24, align 8
  store ptr getelementptr inbounds inrange(-16, 72) (i8, ptr @_ZTVN16MetaspaceClosure18MSOPointerArrayRefI5ArrayIhEEE, i64 16), ptr %21, align 8
  tail call void @_ZN16MetaspaceClosure9push_implEPNS_3RefE(ptr noundef nonnull align 8 dereferenceable(32) %1, ptr noundef nonnull %21) #7
  ret void
}